target datalayout = "e-m:e-p270:32:32-p271:32:32-p272:64:64-i64:64-i128:128-f80:128-n8:16:32:64-S128"
target triple = "x86_64-pc-linux-gnu"

; Function Attrs: mustprogress nounwind uwtable
define void @_ZN3MD56encodeEPhPKjj(ptr noundef %0, ptr noundef %1, i32 noundef %2) #5 align 2 {
  %4 = alloca ptr, align 8
  %5 = alloca ptr, align 8
  %6 = alloca i32, align 4
  %7 = alloca i32, align 4
  %8 = alloca i32, align 4
  store ptr %0, ptr %4, align 8, !tbaa !18
  store ptr %1, ptr %5, align 8, !tbaa !26
  store i32 %2, ptr %6, align 4, !tbaa !14
  call void @llvm.lifetime.start.p0(i64 4, ptr %7) #3
  store i32 0, ptr %7, align 4, !tbaa !14
  call void @llvm.lifetime.start.p0(i64 4, ptr %8) #3
  store i32 0, ptr %8, align 4, !tbaa !14
  br label %9

9:                                                ; preds = %65, %3
  %10 = load i32, ptr %8, align 4, !tbaa !14
  %11 = load i32, ptr %6, align 4, !tbaa !14
  %12 = icmp ult i32 %10, %11
  br i1 %12, label %14, label %13

13:                                               ; preds = %9
  call void @llvm.lifetime.end.p0(i64 4, ptr %8) #3
  call void @llvm.lifetime.end.p0(i64 4, ptr %7) #3
  br label %70

14:                                               ; preds = %9
  %15 = load ptr, ptr %5, align 8, !tbaa !26
  %16 = load i32, ptr %7, align 4, !tbaa !14
  %17 = zext i32 %16 to i64
  %18 = getelementptr inbounds nuw i32, ptr %15, i64 %17
  %19 = load i32, ptr %18, align 4, !tbaa !14
  %20 = and i32 %19, 255
  %21 = trunc i32 %20 to i8
  %22 = load ptr, ptr %4, align 8, !tbaa !18
  %23 = load i32, ptr %8, align 4, !tbaa !14
  %24 = zext i32 %23 to i64
  %25 = getelementptr inbounds nuw i8, ptr %22, i64 %24
  store i8 %21, ptr %25, align 1, !tbaa !28
  %26 = load ptr, ptr %5, align 8, !tbaa !26
  %27 = load i32, ptr %7, align 4, !tbaa !14
  %28 = zext i32 %27 to i64
  %29 = getelementptr inbounds nuw i32, ptr %26, i64 %28
  %30 = load i32, ptr %29, align 4, !tbaa !14
  %31 = lshr i32 %30, 8
  %32 = and i32 %31, 255
  %33 = trunc i32 %32 to i8
  %34 = load ptr, ptr %4, align 8, !tbaa !18
  %35 = load i32, ptr %8, align 4, !tbaa !14
  %36 = add i32 %35, 1
  %37 = zext i32 %36 to i64
  %38 = getelementptr inbounds nuw i8, ptr %34, i64 %37
  store i8 %33, ptr %38, align 1, !tbaa !28
  %39 = load ptr, ptr %5, align 8, !tbaa !26
  %40 = load i32, ptr %7, align 4, !tbaa !14
  %41 = zext i32 %40 to i64
  %42 = getelementptr inbounds nuw i32, ptr %39, i64 %41
  %43 = load i32, ptr %42, align 4, !tbaa !14
  %44 = lshr i32 %43, 16
  %45 = and i32 %44, 255
  %46 = trunc i32 %45 to i8
  %47 = load ptr, ptr %4, align 8, !tbaa !18
  %48 = load i32, ptr %8, align 4, !tbaa !14
  %49 = add i32 %48, 2
  %50 = zext i32 %49 to i64
  %51 = getelementptr inbounds nuw i8, ptr %47, i64 %50
  store i8 %46, ptr %51, align 1, !tbaa !28
  %52 = load ptr, ptr %5, align 8, !tbaa !26
  %53 = load i32, ptr %7, align 4, !tbaa !14
  %54 = zext i32 %53 to i64
  %55 = getelementptr inbounds nuw i32, ptr %52, i64 %54
  %56 = load i32, ptr %55, align 4, !tbaa !14
  %57 = lshr i32 %56, 24
  %58 = and i32 %57, 255
  %59 = trunc i32 %58 to i8
  %60 = load ptr, ptr %4, align 8, !tbaa !18
  %61 = load i32, ptr %8, align 4, !tbaa !14
  %62 = add i32 %61, 3
  %63 = zext i32 %62 to i64
  %64 = getelementptr inbounds nuw i8, ptr %60, i64 %63
  store i8 %59, ptr %64, align 1, !tbaa !28
  br label %65

65:                                               ; preds = %14
  %66 = load i32, ptr %7, align 4, !tbaa !14
  %67 = add i32 %66, 1
  store i32 %67, ptr %7, align 4, !tbaa !14
  %68 = load i32, ptr %8, align 4, !tbaa !14
  %69 = add i32 %68, 4
  store i32 %69, ptr %8, align 4, !tbaa !14
  br label %9, !llvm.loop !31

70:                                               ; preds = %13
  ret void
}