; Function Attrs: mustprogress nofree norecurse nosync nounwind memory(argmem: readwrite) uwtable
define void @_ZN3MD56encodeEPhPKjj(ptr noundef writeonly captures(none) %0, ptr noundef readonly captures(none) %1, i32 noundef %2) local_unnamed_addr #5 align 2 {
  %.not = icmp eq i32 %2, 0
  br i1 %.not, label %._crit_edge, label %.lr.ph.preheader

.lr.ph.preheader:                                 ; preds = %3
  %4 = add i32 %2, -1
  %5 = lshr i32 %4, 2
  %6 = add nuw nsw i32 %5, 1
  %wide.trip.count = zext nneg i32 %6 to i64
  br label %.lr.ph

._crit_edge:                                      ; preds = %.lr.ph, %3
  ret void

.lr.ph:                                           ; preds = %.lr.ph.preheader, %.lr.ph
  %indvars.iv22 = phi i64 [ 0, %.lr.ph.preheader ], [ %indvars.iv.next23, %.lr.ph ]
  %indvars.iv = phi i64 [ 0, %.lr.ph.preheader ], [ %indvars.iv.next, %.lr.ph ]
  %7 = getelementptr inbounds nuw i32, ptr %1, i64 %indvars.iv22
  %8 = load i32, ptr %7, align 4, !tbaa !11
  %9 = trunc i32 %8 to i8
  %10 = getelementptr inbounds nuw i8, ptr %0, i64 %indvars.iv
  store i8 %9, ptr %10, align 1, !tbaa !24
  %11 = load i32, ptr %7, align 4, !tbaa !11
  %12 = lshr i32 %11, 8
  %13 = trunc i32 %12 to i8
  %14 = or disjoint i64 %indvars.iv, 1
  %15 = getelementptr inbounds nuw i8, ptr %0, i64 %14
  store i8 %13, ptr %15, align 1, !tbaa !24
  %16 = load i32, ptr %7, align 4, !tbaa !11
  %17 = lshr i32 %16, 16
  %18 = trunc i32 %17 to i8
  %19 = or disjoint i64 %indvars.iv, 2
  %20 = getelementptr inbounds nuw i8, ptr %0, i64 %19
  store i8 %18, ptr %20, align 1, !tbaa !24
  %21 = load i32, ptr %7, align 4, !tbaa !11
  %22 = lshr i32 %21, 24
  %23 = trunc nuw i32 %22 to i8
  %24 = or disjoint i64 %indvars.iv, 3
  %25 = getelementptr inbounds nuw i8, ptr %0, i64 %24
  store i8 %23, ptr %25, align 1, !tbaa !24
  %indvars.iv.next23 = add nuw nsw i64 %indvars.iv22, 1
  %indvars.iv.next = add nuw nsw i64 %indvars.iv, 4
  %exitcond.not = icmp eq i64 %indvars.iv.next23, %wide.trip.count
  br i1 %exitcond.not, label %._crit_edge, label %.lr.ph, !llvm.loop !25
}